target datalayout = "e-m:e-p270:32:32-p271:32:32-p272:64:64-i64:64-i128:128-f80:128-n8:16:32:64-S128"
target triple = "x86_64-pc-linux-gnu"

%struct.aom_read_bit_buffer = type { ptr, ptr, i32, ptr, ptr }

; Function Attrs: nounwind uwtable
define hidden i32 @aom_rb_read_bit(ptr noundef %0) #0 {
  %2 = alloca i32, align 4
  %3 = alloca ptr, align 8
  %4 = alloca i32, align 4
  %5 = alloca i32, align 4
  %6 = alloca i32, align 4
  %7 = alloca i32, align 4
  store ptr %0, ptr %3, align 8
  %8 = load ptr, ptr %3, align 8
  %9 = getelementptr inbounds nuw %struct.aom_read_bit_buffer, ptr %8, i32 0, i32 2
  %10 = load i32, ptr %9, align 8
  store i32 %10, ptr %4, align 4
  %11 = load i32, ptr %4, align 4
  %12 = lshr i32 %11, 3
  store i32 %12, ptr %5, align 4
  %13 = load i32, ptr %4, align 4
  %14 = and i32 %13, 7
  %15 = sub nsw i32 7, %14
  store i32 %15, ptr %6, align 4
  %16 = load ptr, ptr %3, align 8
  %17 = getelementptr inbounds nuw %struct.aom_read_bit_buffer, ptr %16, i32 0, i32 0
  %18 = load ptr, ptr %17, align 8
  %19 = load i32, ptr %5, align 4
  %20 = zext i32 %19 to i64
  %21 = getelementptr inbounds i8, ptr %18, i64 %20
  %22 = load ptr, ptr %3, align 8
  %23 = getelementptr inbounds nuw %struct.aom_read_bit_buffer, ptr %22, i32 0, i32 1
  %24 = load ptr, ptr %23, align 8
  %25 = icmp ult ptr %21, %24
  br i1 %25, label %26, label %43

26:                                               ; preds = %1
  %27 = load ptr, ptr %3, align 8
  %28 = getelementptr inbounds nuw %struct.aom_read_bit_buffer, ptr %27, i32 0, i32 0
  %29 = load ptr, ptr %28, align 8
  %30 = load i32, ptr %5, align 4
  %31 = zext i32 %30 to i64
  %32 = getelementptr inbounds i8, ptr %29, i64 %31
  %33 = load i8, ptr %32, align 1
  %34 = zext i8 %33 to i32
  %35 = load i32, ptr %6, align 4
  %36 = ashr i32 %34, %35
  %37 = and i32 %36, 1
  store i32 %37, ptr %7, align 4
  %38 = load i32, ptr %4, align 4
  %39 = add i32 %38, 1
  %40 = load ptr, ptr %3, align 8
  %41 = getelementptr inbounds nuw %struct.aom_read_bit_buffer, ptr %40, i32 0, i32 2
  store i32 %39, ptr %41, align 8
  %42 = load i32, ptr %7, align 4
  store i32 %42, ptr %2, align 4
  br label %56

43:                                               ; preds = %1
  %44 = load ptr, ptr %3, align 8
  %45 = getelementptr inbounds nuw %struct.aom_read_bit_buffer, ptr %44, i32 0, i32 4
  %46 = load ptr, ptr %45, align 8
  %47 = icmp ne ptr %46, null
  br i1 %47, label %48, label %55

48:                                               ; preds = %43
  %49 = load ptr, ptr %3, align 8
  %50 = getelementptr inbounds nuw %struct.aom_read_bit_buffer, ptr %49, i32 0, i32 4
  %51 = load ptr, ptr %50, align 8
  %52 = load ptr, ptr %3, align 8
  %53 = getelementptr inbounds nuw %struct.aom_read_bit_buffer, ptr %52, i32 0, i32 3
  %54 = load ptr, ptr %53, align 8
  call void %51(ptr noundef %54)
  br label %55

55:                                               ; preds = %48, %43
  store i32 0, ptr %2, align 4
  br label %56

56:                                               ; preds = %55, %26
  %57 = load i32, ptr %2, align 4
  ret i32 %57
}

; Function Attrs: nounwind uwtable
define hidden i32 @aom_rb_read_literal(ptr noundef %0, i32 noundef %1) #0 {
  %3 = alloca ptr, align 8
  %4 = alloca i32, align 4
  %5 = alloca i32, align 4
  %6 = alloca i32, align 4
  store ptr %0, ptr %3, align 8
  store i32 %1, ptr %4, align 4
  store i32 0, ptr %5, align 4
  %7 = load i32, ptr %4, align 4
  %8 = sub nsw i32 %7, 1
  store i32 %8, ptr %6, align 4
  br label %9

9:                                                ; preds = %19, %2
  %10 = load i32, ptr %6, align 4
  %11 = icmp sge i32 %10, 0
  br i1 %11, label %12, label %22

12:                                               ; preds = %9
  %13 = load ptr, ptr %3, align 8
  %14 = call i32 @aom_rb_read_bit(ptr noundef %13)
  %15 = load i32, ptr %6, align 4
  %16 = shl i32 %14, %15
  %17 = load i32, ptr %5, align 4
  %18 = or i32 %17, %16
  store i32 %18, ptr %5, align 4
  br label %19

19:                                               ; preds = %12
  %20 = load i32, ptr %6, align 4
  %21 = add nsw i32 %20, -1
  store i32 %21, ptr %6, align 4
  br label %9, !llvm.loop !4

22:                                               ; preds = %9
  %23 = load i32, ptr %5, align 4
  ret i32 %23
}